target datalayout = "e-m:e-p270:32:32-p271:32:32-p272:64:64-i64:64-i128:128-f80:128-n8:16:32:64-S128"
target triple = "x86_64-pc-linux-gnu"

%struct.sock_gres = type { ptr, ptr, i64, ptr, ptr, ptr, i64, i32, i64, i64, i8 }
%struct.gres_state = type { i32, i32, ptr, ptr, i32 }
%struct.gres_job_state = type { i32, ptr, i16, i16, i64, i64, i64, i64, i64, i16, i16, i64, i32, ptr, ptr, ptr, ptr, i32, i64, i32, ptr, ptr, ptr, ptr, ptr, ptr }
%struct.gres_node_state = type { ptr, i64, i64, i8, i8, i64, ptr, i64, ptr, i16, i32, ptr, ptr, ptr, ptr, ptr, ptr, ptr, ptr, i16, ptr, ptr, ptr, ptr }
%struct.node_record = type { ptr, ptr, i16, i64, i64, ptr, ptr, ptr, i16, ptr, i16, i16, i32, i32, i64, ptr, i16, i16, ptr, ptr, ptr, ptr, ptr, i64, i64, ptr, ptr, ptr, ptr, i32, ptr, ptr, i64, i64, i32, ptr, i64, ptr, i32, i16, ptr, ptr, i32, ptr, i32, i8, ptr, i32, i16, i16, ptr, i16, i64, i16, i64, ptr, i64, i32, i16, i64, i16, ptr, i16, i64, ptr, i64, i16, i32, i16, ptr, ptr, ptr, i16, i32, i16, i16, i32, ptr, i16, i32 }

@.str.5 = private unnamed_addr constant [21 x i8] c"gres_select_filter.c\00", align 1
@.str.15 = private unnamed_addr constant [29 x i8] c"%s: tasks_per_socket is NULL\00", align 1
@__func__._get_task_cnt_node = private unnamed_addr constant [19 x i8] c"_get_task_cnt_node\00", align 1
@node_record_table_ptr = external global ptr, align 8
@.str.22 = private unnamed_addr constant [49 x i8] c"%s: tasks_per_socket unset for job %u on node %s\00", align 1
@__func__._set_task_bits = private unnamed_addr constant [15 x i8] c"_set_task_bits\00", align 1
@.str.30 = private unnamed_addr constant [107 x i8] c"%s: Insufficient gres/%s allocated for job %u on node_inx %u (gres still needed %lu, total requested: %lu)\00", align 1

; Function Attrs: nounwind uwtable
define internal i32 @_get_task_cnt_node(ptr noundef %0, i32 noundef %1) #0 {
  %3 = alloca i32, align 4
  %4 = alloca ptr, align 8
  %5 = alloca i32, align 4
  %6 = alloca i32, align 4
  %7 = alloca i32, align 4
  %8 = alloca i32, align 4
  store ptr %0, ptr %4, align 8
  store i32 %1, ptr %5, align 4
  call void @llvm.lifetime.start.p0(i64 4, ptr %6) #5
  store i32 0, ptr %6, align 4
  %9 = load ptr, ptr %4, align 8
  %10 = icmp ne ptr %9, null
  br i1 %10, label %13, label %11

11:                                               ; preds = %2
  %12 = call i32 (ptr, ...) @slurm_error(ptr noundef @.str.15, ptr noundef @__func__._get_task_cnt_node)
  store i32 1, ptr %3, align 4
  store i32 1, ptr %7, align 4
  br label %32

13:                                               ; preds = %2
  call void @llvm.lifetime.start.p0(i64 4, ptr %8) #5
  store i32 0, ptr %8, align 4
  br label %14

14:                                               ; preds = %27, %13
  %15 = load i32, ptr %8, align 4
  %16 = load i32, ptr %5, align 4
  %17 = icmp slt i32 %15, %16
  br i1 %17, label %19, label %18

18:                                               ; preds = %14
  store i32 2, ptr %7, align 4
  call void @llvm.lifetime.end.p0(i64 4, ptr %8) #5
  br label %30

19:                                               ; preds = %14
  %20 = load ptr, ptr %4, align 8
  %21 = load i32, ptr %8, align 4
  %22 = sext i32 %21 to i64
  %23 = getelementptr inbounds i32, ptr %20, i64 %22
  %24 = load i32, ptr %23, align 4
  %25 = load i32, ptr %6, align 4
  %26 = add i32 %25, %24
  store i32 %26, ptr %6, align 4
  br label %27

27:                                               ; preds = %19
  %28 = load i32, ptr %8, align 4
  %29 = add nsw i32 %28, 1
  store i32 %29, ptr %8, align 4
  br label %14, !llvm.loop !33

30:                                               ; preds = %18
  %31 = load i32, ptr %6, align 4
  store i32 %31, ptr %3, align 4
  store i32 1, ptr %7, align 4
  br label %32

32:                                               ; preds = %30, %11
  call void @llvm.lifetime.end.p0(i64 4, ptr %6) #5
  %33 = load i32, ptr %3, align 4
  ret i32 %33
}

; Function Attrs: nounwind uwtable
define internal void @_set_task_bits(i32 noundef %0, ptr noundef %1, i32 noundef %2, ptr noundef %3, i32 noundef %4, i1 noundef zeroext %5) #0 {
  %7 = alloca i32, align 4
  %8 = alloca ptr, align 8
  %9 = alloca i32, align 4
  %10 = alloca ptr, align 8
  %11 = alloca i32, align 4
  %12 = alloca i8, align 1
  %13 = alloca i16, align 2
  %14 = alloca i32, align 4
  %15 = alloca i32, align 4
  %16 = alloca i32, align 4
  %17 = alloca ptr, align 8
  %18 = alloca ptr, align 8
  %19 = alloca i64, align 8
  %20 = alloca i64, align 8
  %21 = alloca ptr, align 8
  %22 = alloca ptr, align 8
  %23 = alloca i32, align 4
  store i32 %0, ptr %7, align 4
  store ptr %1, ptr %8, align 8
  store i32 %2, ptr %9, align 4
  store ptr %3, ptr %10, align 8
  store i32 %4, ptr %11, align 4
  %24 = zext i1 %5 to i8
  store i8 %24, ptr %12, align 1
  call void @llvm.lifetime.start.p0(i64 2, ptr %13) #5
  store i16 0, ptr %13, align 2
  call void @llvm.lifetime.start.p0(i64 4, ptr %14) #5
  call void @llvm.lifetime.start.p0(i64 4, ptr %15) #5
  call void @llvm.lifetime.start.p0(i64 4, ptr %16) #5
  call void @llvm.lifetime.start.p0(i64 8, ptr %17) #5
  call void @llvm.lifetime.start.p0(i64 8, ptr %18) #5
  call void @llvm.lifetime.start.p0(i64 8, ptr %19) #5
  call void @llvm.lifetime.start.p0(i64 8, ptr %20) #5
  call void @llvm.lifetime.start.p0(i64 8, ptr %21) #5
  store ptr null, ptr %21, align 8
  call void @llvm.lifetime.start.p0(i64 8, ptr %22) #5
  store ptr null, ptr %22, align 8
  %25 = load ptr, ptr %8, align 8
  %26 = getelementptr inbounds nuw %struct.sock_gres, ptr %25, i32 0, i32 4
  %27 = load ptr, ptr %26, align 8
  %28 = getelementptr inbounds nuw %struct.gres_state, ptr %27, i32 0, i32 2
  %29 = load ptr, ptr %28, align 8
  store ptr %29, ptr %17, align 8
  %30 = load ptr, ptr %8, align 8
  %31 = getelementptr inbounds nuw %struct.sock_gres, ptr %30, i32 0, i32 5
  %32 = load ptr, ptr %31, align 8
  %33 = getelementptr inbounds nuw %struct.gres_state, ptr %32, i32 0, i32 2
  %34 = load ptr, ptr %33, align 8
  store ptr %34, ptr %18, align 8
  %35 = load ptr, ptr %8, align 8
  %36 = getelementptr inbounds nuw %struct.sock_gres, ptr %35, i32 0, i32 7
  %37 = load i32, ptr %36, align 8
  %38 = trunc i32 %37 to i16
  store i16 %38, ptr %13, align 2
  %39 = load ptr, ptr %17, align 8
  %40 = getelementptr inbounds nuw %struct.gres_job_state, ptr %39, i32 0, i32 13
  %41 = load ptr, ptr %40, align 8
  %42 = load i32, ptr %7, align 4
  %43 = sext i32 %42 to i64
  %44 = getelementptr inbounds ptr, ptr %41, i64 %43
  %45 = load ptr, ptr %44, align 8
  %46 = call i64 @slurm_bit_size(ptr noundef %45)
  %47 = trunc i64 %46 to i32
  store i32 %47, ptr %14, align 4
  %48 = load ptr, ptr %10, align 8
  %49 = icmp ne ptr %48, null
  br i1 %49, label %60, label %50

50:                                               ; preds = %6
  %51 = load i32, ptr %9, align 4
  %52 = load ptr, ptr @node_record_table_ptr, align 8
  %53 = load i32, ptr %7, align 4
  %54 = sext i32 %53 to i64
  %55 = getelementptr inbounds ptr, ptr %52, i64 %54
  %56 = load ptr, ptr %55, align 8
  %57 = getelementptr inbounds nuw %struct.node_record, ptr %56, i32 0, i32 37
  %58 = load ptr, ptr %57, align 8
  %59 = call i32 (ptr, ...) @slurm_error(ptr noundef @.str.22, ptr noundef @__func__._set_task_bits, i32 noundef %51, ptr noundef %58)
  store i32 1, ptr %23, align 4
  br label %223

60:                                               ; preds = %6
  %61 = load ptr, ptr %18, align 8
  %62 = getelementptr inbounds nuw %struct.gres_node_state, ptr %61, i32 0, i32 10
  %63 = load i32, ptr %62, align 4
  %64 = load i32, ptr %14, align 4
  %65 = icmp eq i32 %63, %64
  br i1 %65, label %66, label %87

66:                                               ; preds = %60
  %67 = load i32, ptr %14, align 4
  %68 = sext i32 %67 to i64
  %69 = call ptr @slurm_xcalloc(i64 noundef %68, i64 noundef 4, i1 noundef zeroext true, i1 noundef zeroext false, ptr noundef @.str.5, i32 noundef 1300, ptr noundef @__func__._set_task_bits)
  store ptr %69, ptr %21, align 8
  %70 = load i32, ptr %14, align 4
  %71 = sext i32 %70 to i64
  %72 = call ptr @slurm_xcalloc(i64 noundef %71, i64 noundef 4, i1 noundef zeroext true, i1 noundef zeroext false, ptr noundef @.str.5, i32 noundef 1301, ptr noundef @__func__._set_task_bits)
  store ptr %72, ptr %22, align 8
  store i32 0, ptr %15, align 4
  br label %73

73:                                               ; preds = %83, %66
  %74 = load i32, ptr %15, align 4
  %75 = load i32, ptr %14, align 4
  %76 = icmp slt i32 %74, %75
  br i1 %76, label %77, label %86

77:                                               ; preds = %73
  %78 = load i32, ptr %15, align 4
  %79 = load ptr, ptr %22, align 8
  %80 = load i32, ptr %15, align 4
  %81 = sext i32 %80 to i64
  %82 = getelementptr inbounds i32, ptr %79, i64 %81
  store i32 %78, ptr %82, align 4
  br label %83

83:                                               ; preds = %77
  %84 = load i32, ptr %15, align 4
  %85 = add nsw i32 %84, 1
  store i32 %85, ptr %15, align 4
  br label %73, !llvm.loop !53

86:                                               ; preds = %73
  br label %87

87:                                               ; preds = %86, %60
  %88 = load ptr, ptr %10, align 8
  %89 = load i16, ptr %13, align 2
  %90 = zext i16 %89 to i32
  %91 = call i32 @_get_task_cnt_node(ptr noundef %88, i32 noundef %90)
  %92 = zext i32 %91 to i64
  %93 = load ptr, ptr %17, align 8
  %94 = getelementptr inbounds nuw %struct.gres_job_state, ptr %93, i32 0, i32 7
  %95 = load i64, ptr %94, align 8
  %96 = mul i64 %92, %95
  store i64 %96, ptr %19, align 8
  %97 = load i32, ptr %11, align 4
  %98 = zext i32 %97 to i64
  %99 = load i64, ptr %19, align 8
  %100 = sub i64 %99, %98
  store i64 %100, ptr %19, align 8
  store i32 0, ptr %16, align 4
  br label %101

101:                                              ; preds = %152, %87
  %102 = load i32, ptr %16, align 4
  %103 = load i16, ptr %13, align 2
  %104 = zext i16 %103 to i32
  %105 = icmp slt i32 %102, %104
  br i1 %105, label %106, label %155

106:                                              ; preds = %101
  %107 = load ptr, ptr %10, align 8
  %108 = load i32, ptr %16, align 4
  %109 = sext i32 %108 to i64
  %110 = getelementptr inbounds i32, ptr %107, i64 %109
  %111 = load i32, ptr %110, align 4
  %112 = icmp ne i32 %111, 0
  br i1 %112, label %114, label %113

113:                                              ; preds = %106
  br label %152

114:                                              ; preds = %106
  %115 = load i64, ptr %19, align 8
  %116 = load ptr, ptr %10, align 8
  %117 = load i32, ptr %16, align 4
  %118 = sext i32 %117 to i64
  %119 = getelementptr inbounds i32, ptr %116, i64 %118
  %120 = load i32, ptr %119, align 4
  %121 = zext i32 %120 to i64
  %122 = load ptr, ptr %17, align 8
  %123 = getelementptr inbounds nuw %struct.gres_job_state, ptr %122, i32 0, i32 7
  %124 = load i64, ptr %123, align 8
  %125 = mul i64 %121, %124
  %126 = icmp ult i64 %115, %125
  br i1 %126, label %127, label %129

127:                                              ; preds = %114
  %128 = load i64, ptr %19, align 8
  br label %140

129:                                              ; preds = %114
  %130 = load ptr, ptr %10, align 8
  %131 = load i32, ptr %16, align 4
  %132 = sext i32 %131 to i64
  %133 = getelementptr inbounds i32, ptr %130, i64 %132
  %134 = load i32, ptr %133, align 4
  %135 = zext i32 %134 to i64
  %136 = load ptr, ptr %17, align 8
  %137 = getelementptr inbounds nuw %struct.gres_job_state, ptr %136, i32 0, i32 7
  %138 = load i64, ptr %137, align 8
  %139 = mul i64 %135, %138
  br label %140

140:                                              ; preds = %129, %127
  %141 = phi i64 [ %128, %127 ], [ %139, %129 ]
  store i64 %141, ptr %20, align 8
  %142 = load ptr, ptr %8, align 8
  %143 = load i64, ptr %20, align 8
  %144 = trunc i64 %143 to i32
  %145 = load i32, ptr %7, align 4
  %146 = load i32, ptr %16, align 4
  %147 = load ptr, ptr %22, align 8
  %148 = load ptr, ptr %21, align 8
  %149 = call i64 @_pick_gres_topo(ptr noundef %142, i32 noundef %144, i32 noundef %145, i32 noundef %146, ptr noundef %147, ptr noundef %148)
  %150 = load i64, ptr %19, align 8
  %151 = sub i64 %150, %149
  store i64 %151, ptr %19, align 8
  br label %152

152:                                              ; preds = %140, %113
  %153 = load i32, ptr %16, align 4
  %154 = add nsw i32 %153, 1
  store i32 %154, ptr %16, align 4
  br label %101, !llvm.loop !54

155:                                              ; preds = %101
  %156 = load i64, ptr %19, align 8
  %157 = icmp ne i64 %156, 0
  br i1 %157, label %158, label %168

158:                                              ; preds = %155
  %159 = load ptr, ptr %8, align 8
  %160 = load i64, ptr %19, align 8
  %161 = trunc i64 %160 to i32
  %162 = load i32, ptr %7, align 4
  %163 = load ptr, ptr %22, align 8
  %164 = load ptr, ptr %21, align 8
  %165 = call i64 @_pick_gres_topo(ptr noundef %159, i32 noundef %161, i32 noundef %162, i32 noundef -1, ptr noundef %163, ptr noundef %164)
  %166 = load i64, ptr %19, align 8
  %167 = sub i64 %166, %165
  store i64 %167, ptr %19, align 8
  br label %168

168:                                              ; preds = %158, %155
  %169 = load i64, ptr %19, align 8
  %170 = icmp ne i64 %169, 0
  br i1 %170, label %171, label %200

171:                                              ; preds = %168
  %172 = load i8, ptr %12, align 1, !range !8, !noundef !9
  %173 = trunc i8 %172 to i1
  br i1 %173, label %200, label %174

174:                                              ; preds = %171
  store i32 0, ptr %16, align 4
  br label %175

175:                                              ; preds = %196, %174
  %176 = load i32, ptr %16, align 4
  %177 = load i16, ptr %13, align 2
  %178 = zext i16 %177 to i32
  %179 = icmp slt i32 %176, %178
  br i1 %179, label %180, label %183

180:                                              ; preds = %175
  %181 = load i64, ptr %19, align 8
  %182 = icmp ne i64 %181, 0
  br label %183

183:                                              ; preds = %180, %175
  %184 = phi i1 [ false, %175 ], [ %182, %180 ]
  br i1 %184, label %185, label %199

185:                                              ; preds = %183
  %186 = load ptr, ptr %8, align 8
  %187 = load i64, ptr %19, align 8
  %188 = trunc i64 %187 to i32
  %189 = load i32, ptr %7, align 4
  %190 = load i32, ptr %16, align 4
  %191 = load ptr, ptr %22, align 8
  %192 = load ptr, ptr %21, align 8
  %193 = call i64 @_pick_gres_topo(ptr noundef %186, i32 noundef %188, i32 noundef %189, i32 noundef %190, ptr noundef %191, ptr noundef %192)
  %194 = load i64, ptr %19, align 8
  %195 = sub i64 %194, %193
  store i64 %195, ptr %19, align 8
  br label %196

196:                                              ; preds = %185
  %197 = load i32, ptr %16, align 4
  %198 = add nsw i32 %197, 1
  store i32 %198, ptr %16, align 4
  br label %175, !llvm.loop !55

199:                                              ; preds = %183
  br label %200

200:                                              ; preds = %199, %171, %168
  call void @slurm_xfree(ptr noundef %21)
  call void @slurm_xfree(ptr noundef %22)
  %201 = load i64, ptr %19, align 8
  %202 = icmp ne i64 %201, 0
  br i1 %202, label %203, label %222

203:                                              ; preds = %200
  %204 = load ptr, ptr %8, align 8
  %205 = getelementptr inbounds nuw %struct.sock_gres, ptr %204, i32 0, i32 4
  %206 = load ptr, ptr %205, align 8
  %207 = getelementptr inbounds nuw %struct.gres_state, ptr %206, i32 0, i32 3
  %208 = load ptr, ptr %207, align 8
  %209 = load i32, ptr %9, align 4
  %210 = load i32, ptr %7, align 4
  %211 = load i64, ptr %19, align 8
  %212 = load ptr, ptr %10, align 8
  %213 = load i16, ptr %13, align 2
  %214 = zext i16 %213 to i32
  %215 = call i32 @_get_task_cnt_node(ptr noundef %212, i32 noundef %214)
  %216 = zext i32 %215 to i64
  %217 = load ptr, ptr %17, align 8
  %218 = getelementptr inbounds nuw %struct.gres_job_state, ptr %217, i32 0, i32 7
  %219 = load i64, ptr %218, align 8
  %220 = mul i64 %216, %219
  %221 = call i32 (ptr, ...) @slurm_error(ptr noundef @.str.30, ptr noundef @__func__._set_task_bits, ptr noundef %208, i32 noundef %209, i32 noundef %210, i64 noundef %211, i64 noundef %220)
  br label %222

222:                                              ; preds = %203, %200
  store i32 0, ptr %23, align 4
  br label %223

223:                                              ; preds = %222, %50
  call void @llvm.lifetime.end.p0(i64 8, ptr %22) #5
  call void @llvm.lifetime.end.p0(i64 8, ptr %21) #5
  call void @llvm.lifetime.end.p0(i64 8, ptr %20) #5
  call void @llvm.lifetime.end.p0(i64 8, ptr %19) #5
  call void @llvm.lifetime.end.p0(i64 8, ptr %18) #5
  call void @llvm.lifetime.end.p0(i64 8, ptr %17) #5
  call void @llvm.lifetime.end.p0(i64 4, ptr %16) #5
  call void @llvm.lifetime.end.p0(i64 4, ptr %15) #5
  call void @llvm.lifetime.end.p0(i64 4, ptr %14) #5
  call void @llvm.lifetime.end.p0(i64 2, ptr %13) #5
  %224 = load i32, ptr %23, align 4
  switch i32 %224, label %226 [
    i32 0, label %225
    i32 1, label %225
  ]

225:                                              ; preds = %223, %223
  ret void

226:                                              ; preds = %223
  unreachable
}