; Function Attrs: nounwind uwtable
define internal fastcc void @_set_task_bits(i32 noundef %0, ptr noundef readonly captures(none) %1, i32 noundef %2, ptr noundef readonly captures(address_is_null) %3, i32 noundef %4, i1 noundef zeroext %5) unnamed_addr #0 {
  %7 = alloca ptr, align 8
  %8 = alloca ptr, align 8
  call void @llvm.lifetime.start.p0(i64 8, ptr nonnull %7) #8
  store ptr null, ptr %7, align 8
  call void @llvm.lifetime.start.p0(i64 8, ptr nonnull %8) #8
  store ptr null, ptr %8, align 8
  %9 = getelementptr inbounds nuw i8, ptr %1, i64 32
  %10 = load ptr, ptr %9, align 8
  %11 = getelementptr inbounds nuw i8, ptr %10, i64 8
  %12 = load ptr, ptr %11, align 8
  %13 = getelementptr inbounds nuw i8, ptr %1, i64 40
  %14 = load ptr, ptr %13, align 8
  %15 = getelementptr inbounds nuw i8, ptr %14, i64 8
  %16 = load ptr, ptr %15, align 8
  %17 = getelementptr inbounds nuw i8, ptr %1, i64 56
  %18 = load i32, ptr %17, align 8
  %19 = getelementptr inbounds nuw i8, ptr %12, i64 88
  %20 = load ptr, ptr %19, align 8
  %21 = sext i32 %0 to i64
  %22 = getelementptr inbounds ptr, ptr %20, i64 %21
  %23 = load ptr, ptr %22, align 8
  %24 = tail call i64 @slurm_bit_size(ptr noundef %23) #8
  %25 = trunc i64 %24 to i32
  %.not = icmp eq ptr %3, null
  br i1 %.not, label %26, label %33

26:                                               ; preds = %6
  %27 = load ptr, ptr @node_record_table_ptr, align 8
  %28 = getelementptr inbounds ptr, ptr %27, i64 %21
  %29 = load ptr, ptr %28, align 8
  %30 = getelementptr inbounds nuw i8, ptr %29, i64 272
  %31 = load ptr, ptr %30, align 8
  %32 = tail call i32 (ptr, ...) @slurm_error(ptr noundef nonnull @.str.22, ptr noundef nonnull @__func__._set_task_bits, i32 noundef %2, ptr noundef %31) #8
  br label %93

33:                                               ; preds = %6
  %34 = getelementptr inbounds nuw i8, ptr %16, i64 68
  %35 = load i32, ptr %34, align 4
  %36 = icmp eq i32 %35, %25
  br i1 %36, label %37, label %.preheader.i

37:                                               ; preds = %33
  %sext = shl i64 %24, 32
  %38 = ashr exact i64 %sext, 32
  %39 = tail call ptr @slurm_xcalloc(i64 noundef %38, i64 noundef 4, i1 noundef zeroext true, i1 noundef zeroext false, ptr noundef nonnull @.str.5, i32 noundef 1300, ptr noundef nonnull @__func__._set_task_bits) #8
  store ptr %39, ptr %7, align 8
  %40 = tail call ptr @slurm_xcalloc(i64 noundef %38, i64 noundef 4, i1 noundef zeroext true, i1 noundef zeroext false, ptr noundef nonnull @.str.5, i32 noundef 1301, ptr noundef nonnull @__func__._set_task_bits) #8
  store ptr %40, ptr %8, align 8
  %41 = icmp sgt i32 %25, 0
  br i1 %41, label %.lr.ph.preheader, label %.preheader.i

.lr.ph.preheader:                                 ; preds = %37
  %wide.trip.count = and i64 %24, 2147483647
  br label %.lr.ph

.lr.ph:                                           ; preds = %.lr.ph.preheader, %.lr.ph
  %indvars.iv = phi i64 [ 0, %.lr.ph.preheader ], [ %indvars.iv.next, %.lr.ph ]
  %42 = getelementptr inbounds nuw i32, ptr %40, i64 %indvars.iv
  %43 = trunc nuw nsw i64 %indvars.iv to i32
  store i32 %43, ptr %42, align 4
  %indvars.iv.next = add nuw nsw i64 %indvars.iv, 1
  %exitcond.not = icmp eq i64 %indvars.iv.next, %wide.trip.count
  br i1 %exitcond.not, label %.preheader.i, label %.lr.ph, !llvm.loop !52

.preheader.i:                                     ; preds = %.lr.ph, %37, %33
  %44 = phi ptr [ %39, %37 ], [ null, %33 ], [ %39, %.lr.ph ]
  %45 = phi ptr [ %40, %37 ], [ null, %33 ], [ %40, %.lr.ph ]
  %46 = and i32 %18, 65535
  %.not89 = icmp eq i32 %46, 0
  br i1 %.not89, label %_get_task_cnt_node.exit.thread, label %.lr.ph.preheader.i

_get_task_cnt_node.exit.thread:                   ; preds = %.preheader.i
  %47 = getelementptr inbounds nuw i8, ptr %12, i64 48
  %48 = zext i32 %4 to i64
  %49 = sub nsw i64 0, %48
  br label %._crit_edge

.lr.ph.preheader.i:                               ; preds = %.preheader.i
  %wide.trip.count.i = zext nneg i32 %46 to i64
  br label %.lr.ph.i

.lr.ph.i:                                         ; preds = %.lr.ph.i, %.lr.ph.preheader.i
  %indvars.iv.i = phi i64 [ 0, %.lr.ph.preheader.i ], [ %indvars.iv.next.i, %.lr.ph.i ]
  %.0811.i = phi i32 [ 0, %.lr.ph.preheader.i ], [ %52, %.lr.ph.i ]
  %50 = getelementptr inbounds nuw i32, ptr %3, i64 %indvars.iv.i
  %51 = load i32, ptr %50, align 4
  %52 = add i32 %51, %.0811.i
  %indvars.iv.next.i = add nuw nsw i64 %indvars.iv.i, 1
  %exitcond.not.i = icmp eq i64 %indvars.iv.next.i, %wide.trip.count.i
  br i1 %exitcond.not.i, label %_get_task_cnt_node.exit, label %.lr.ph.i, !llvm.loop !42

_get_task_cnt_node.exit:                          ; preds = %.lr.ph.i
  %53 = getelementptr inbounds nuw i8, ptr %12, i64 48
  %54 = load i64, ptr %53, align 8
  %55 = zext i32 %52 to i64
  %56 = mul i64 %54, %55
  %57 = zext i32 %4 to i64
  %58 = sub i64 %56, %57
  %wide.trip.count108 = zext nneg i32 %46 to i64
  br label %59

59:                                               ; preds = %_get_task_cnt_node.exit, %70
  %indvars.iv105 = phi i64 [ 0, %_get_task_cnt_node.exit ], [ %indvars.iv.next106, %70 ]
  %.094 = phi i64 [ %58, %_get_task_cnt_node.exit ], [ %.1, %70 ]
  %60 = getelementptr inbounds nuw i32, ptr %3, i64 %indvars.iv105
  %61 = load i32, ptr %60, align 4
  %.not74 = icmp eq i32 %61, 0
  br i1 %.not74, label %70, label %62

62:                                               ; preds = %59
  %63 = zext i32 %61 to i64
  %64 = load i64, ptr %53, align 8
  %65 = mul i64 %64, %63
  %.0. = tail call i64 @llvm.umin.i64(i64 %.094, i64 %65)
  %66 = trunc i64 %.0. to i32
  %67 = trunc nuw nsw i64 %indvars.iv105 to i32
  %68 = tail call fastcc i64 @_pick_gres_topo(ptr noundef %1, i32 noundef %66, i32 noundef %0, i32 noundef %67, ptr noundef %45, ptr noundef %44)
  %69 = sub i64 %.094, %68
  br label %70

70:                                               ; preds = %59, %62
  %.1 = phi i64 [ %69, %62 ], [ %.094, %59 ]
  %indvars.iv.next106 = add nuw nsw i64 %indvars.iv105, 1
  %exitcond109.not = icmp eq i64 %indvars.iv.next106, %wide.trip.count108
  br i1 %exitcond109.not, label %._crit_edge, label %59, !llvm.loop !53

._crit_edge:                                      ; preds = %70, %_get_task_cnt_node.exit.thread
  %71 = phi ptr [ %47, %_get_task_cnt_node.exit.thread ], [ %53, %70 ]
  %.0.lcssa = phi i64 [ %49, %_get_task_cnt_node.exit.thread ], [ %.1, %70 ]
  %.not71 = icmp eq i64 %.0.lcssa, 0
  br i1 %.not71, label %.thread, label %72

72:                                               ; preds = %._crit_edge
  %73 = trunc i64 %.0.lcssa to i32
  %74 = tail call fastcc i64 @_pick_gres_topo(ptr noundef %1, i32 noundef %73, i32 noundef %0, i32 noundef -1, ptr noundef %45, ptr noundef %44)
  %75 = sub i64 %.0.lcssa, %74
  %.not72 = icmp eq i64 %75, 0
  %brmerge = or i1 %5, %.not72
  %or.cond.not = or i1 %.not89, %brmerge
  br i1 %or.cond.not, label %.thread, label %.lr.ph98

.lr.ph98:                                         ; preds = %72, %.lr.ph98
  %.497 = phi i64 [ %78, %.lr.ph98 ], [ %75, %72 ]
  %.16596 = phi i32 [ %79, %.lr.ph98 ], [ 0, %72 ]
  %76 = trunc i64 %.497 to i32
  %77 = tail call fastcc i64 @_pick_gres_topo(ptr noundef %1, i32 noundef %76, i32 noundef %0, i32 noundef %.16596, ptr noundef %45, ptr noundef %44)
  %78 = sub i64 %.497, %77
  %79 = add nuw nsw i32 %.16596, 1
  %80 = icmp samesign ult i32 %79, %46
  %81 = icmp ne i64 %78, 0
  %82 = select i1 %80, i1 %81, i1 false
  br i1 %82, label %.lr.ph98, label %.thread, !llvm.loop !54

.thread:                                          ; preds = %.lr.ph98, %._crit_edge, %72
  %.3 = phi i64 [ %75, %72 ], [ 0, %._crit_edge ], [ %78, %.lr.ph98 ]
  call void @slurm_xfree(ptr noundef nonnull %7) #8
  call void @slurm_xfree(ptr noundef nonnull %8) #8
  %.not73 = icmp eq i64 %.3, 0
  br i1 %.not73, label %93, label %.preheader.i76

.preheader.i76:                                   ; preds = %.thread
  %83 = load ptr, ptr %9, align 8
  %84 = getelementptr inbounds nuw i8, ptr %83, i64 16
  %85 = load ptr, ptr %84, align 8
  br i1 %.not89, label %_get_task_cnt_node.exit85, label %.lr.ph.preheader.i78

.lr.ph.preheader.i78:                             ; preds = %.preheader.i76
  %wide.trip.count.i79 = zext nneg i32 %46 to i64
  br label %.lr.ph.i80

.lr.ph.i80:                                       ; preds = %.lr.ph.i80, %.lr.ph.preheader.i78
  %indvars.iv.i81 = phi i64 [ 0, %.lr.ph.preheader.i78 ], [ %indvars.iv.next.i83, %.lr.ph.i80 ]
  %.0811.i82 = phi i32 [ 0, %.lr.ph.preheader.i78 ], [ %88, %.lr.ph.i80 ]
  %86 = getelementptr inbounds nuw i32, ptr %3, i64 %indvars.iv.i81
  %87 = load i32, ptr %86, align 4
  %88 = add i32 %87, %.0811.i82
  %indvars.iv.next.i83 = add nuw nsw i64 %indvars.iv.i81, 1
  %exitcond.not.i84 = icmp eq i64 %indvars.iv.next.i83, %wide.trip.count.i79
  br i1 %exitcond.not.i84, label %_get_task_cnt_node.exit85.loopexit, label %.lr.ph.i80, !llvm.loop !42

_get_task_cnt_node.exit85.loopexit:               ; preds = %.lr.ph.i80
  %89 = zext i32 %88 to i64
  br label %_get_task_cnt_node.exit85

_get_task_cnt_node.exit85:                        ; preds = %_get_task_cnt_node.exit85.loopexit, %.preheader.i76
  %.09.i77 = phi i64 [ 0, %.preheader.i76 ], [ %89, %_get_task_cnt_node.exit85.loopexit ]
  %90 = load i64, ptr %71, align 8
  %91 = mul i64 %90, %.09.i77
  %92 = call i32 (ptr, ...) @slurm_error(ptr noundef nonnull @.str.30, ptr noundef nonnull @__func__._set_task_bits, ptr noundef %85, i32 noundef %2, i32 noundef %0, i64 noundef %.3, i64 noundef %91) #8
  br label %93

93:                                               ; preds = %.thread, %_get_task_cnt_node.exit85, %26
  call void @llvm.lifetime.end.p0(i64 8, ptr nonnull %8) #8
  call void @llvm.lifetime.end.p0(i64 8, ptr nonnull %7) #8
  ret void
}